target datalayout = "e-m:e-p270:32:32-p271:32:32-p272:64:64-i64:64-i128:128-f80:128-n8:16:32:64-S128"
target triple = "x86_64-pc-linux-gnu"

%"class.__gnu_cxx::__normal_iterator.143" = type { ptr }
%"class.__gnu_cxx::__normal_iterator.142" = type { ptr }

; Function Attrs: mustprogress nounwind uwtable
define linkonce_odr hidden noundef nonnull align 8 dereferenceable(8) ptr @_ZNK9__gnu_cxx17__normal_iteratorIPcNSt7__cxx1112basic_stringIcSt11char_traitsIcESaIcEEEE4baseEv(ptr noundef nonnull align 8 dereferenceable(8) %0) #1 comdat align 2 {
  %2 = alloca ptr, align 8
  store ptr %0, ptr %2, align 8
  %3 = load ptr, ptr %2, align 8
  %4 = getelementptr inbounds nuw %"class.__gnu_cxx::__normal_iterator.142", ptr %3, i32 0, i32 0
  ret ptr %4
}

; Function Attrs: mustprogress nounwind uwtable
define linkonce_odr hidden void @_ZN9__gnu_cxx17__normal_iteratorIPcNSt7__cxx1112basic_stringIcSt11char_traitsIcESaIcEEEEC2ERKS1_(ptr noundef nonnull align 8 dereferenceable(8) %0, ptr noundef nonnull align 8 dereferenceable(8) %1) unnamed_addr #1 comdat align 2 {
  %3 = alloca ptr, align 8
  %4 = alloca ptr, align 8
  store ptr %0, ptr %3, align 8
  store ptr %1, ptr %4, align 8
  %5 = load ptr, ptr %3, align 8
  %6 = getelementptr inbounds nuw %"class.__gnu_cxx::__normal_iterator.142", ptr %5, i32 0, i32 0
  %7 = load ptr, ptr %4, align 8
  %8 = load ptr, ptr %7, align 8
  store ptr %8, ptr %6, align 8
  ret void
}

; Function Attrs: mustprogress nounwind uwtable
define linkonce_odr hidden void @_ZN9__gnu_cxx17__normal_iteratorIPKcNSt7__cxx1112basic_stringIcSt11char_traitsIcESaIcEEEEC2IPcvEERKNS0_IT_S8_EE(ptr noundef nonnull align 8 dereferenceable(8) %0, ptr noundef nonnull align 8 dereferenceable(8) %1) unnamed_addr #1 comdat align 2 {
  %3 = alloca ptr, align 8
  %4 = alloca ptr, align 8
  store ptr %0, ptr %3, align 8
  store ptr %1, ptr %4, align 8
  %5 = load ptr, ptr %3, align 8
  %6 = getelementptr inbounds nuw %"class.__gnu_cxx::__normal_iterator.143", ptr %5, i32 0, i32 0
  %7 = load ptr, ptr %4, align 8
  %8 = call noundef nonnull align 8 dereferenceable(8) ptr @_ZNK9__gnu_cxx17__normal_iteratorIPcNSt7__cxx1112basic_stringIcSt11char_traitsIcESaIcEEEE4baseEv(ptr noundef nonnull align 8 dereferenceable(8) %7) #12
  %9 = load ptr, ptr %8, align 8
  store ptr %9, ptr %6, align 8
  ret void
}

; Function Attrs: mustprogress nounwind uwtable
define linkonce_odr hidden ptr @_ZNK9__gnu_cxx17__normal_iteratorIPcNSt7__cxx1112basic_stringIcSt11char_traitsIcESaIcEEEEplEl(ptr noundef nonnull align 8 dereferenceable(8) %0, i64 noundef %1) #1 comdat align 2 {
  %3 = alloca %"class.__gnu_cxx::__normal_iterator.142", align 8
  %4 = alloca ptr, align 8
  %5 = alloca i64, align 8
  %6 = alloca ptr, align 8
  store ptr %0, ptr %4, align 8
  store i64 %1, ptr %5, align 8
  %7 = load ptr, ptr %4, align 8
  %8 = getelementptr inbounds nuw %"class.__gnu_cxx::__normal_iterator.142", ptr %7, i32 0, i32 0
  %9 = load ptr, ptr %8, align 8
  %10 = load i64, ptr %5, align 8
  %11 = getelementptr inbounds i8, ptr %9, i64 %10
  store ptr %11, ptr %6, align 8
  call void @_ZN9__gnu_cxx17__normal_iteratorIPcNSt7__cxx1112basic_stringIcSt11char_traitsIcESaIcEEEEC2ERKS1_(ptr noundef nonnull align 8 dereferenceable(8) %3, ptr noundef nonnull align 8 dereferenceable(8) %6) #12
  %12 = getelementptr inbounds nuw %"class.__gnu_cxx::__normal_iterator.142", ptr %3, i32 0, i32 0
  %13 = load ptr, ptr %12, align 8
  ret ptr %13
}

; Function Attrs: mustprogress nounwind uwtable
define internal void @_ZL14UnescapeStringRNSt7__cxx1112basic_stringIcSt11char_traitsIcESaIcEEE(ptr noundef nonnull align 8 dereferenceable(32) %0) #1 {
  %2 = alloca ptr, align 8
  %3 = alloca i32, align 4
  %4 = alloca %"class.__gnu_cxx::__normal_iterator.143", align 8
  %5 = alloca %"class.__gnu_cxx::__normal_iterator.142", align 8
  %6 = alloca %"class.__gnu_cxx::__normal_iterator.142", align 8
  %7 = alloca %"class.__gnu_cxx::__normal_iterator.142", align 8
  %8 = alloca %"class.__gnu_cxx::__normal_iterator.142", align 8
  store ptr %0, ptr %2, align 8
  store i32 0, ptr %3, align 4
  br label %9

9:                                                ; preds = %110, %1
  %10 = load i32, ptr %3, align 4
  %11 = zext i32 %10 to i64
  %12 = load ptr, ptr %2, align 8
  %13 = call noundef i64 @_ZNKSt7__cxx1112basic_stringIcSt11char_traitsIcESaIcEE4sizeEv(ptr noundef nonnull align 8 dereferenceable(32) %12) #12
  %14 = icmp ne i64 %11, %13
  br i1 %14, label %15, label %113

15:                                               ; preds = %9
  %16 = load ptr, ptr %2, align 8
  %17 = load i32, ptr %3, align 4
  %18 = zext i32 %17 to i64
  %19 = call noundef nonnull align 1 dereferenceable(1) ptr @_ZNSt7__cxx1112basic_stringIcSt11char_traitsIcESaIcEEixEm(ptr noundef nonnull align 8 dereferenceable(32) %16, i64 noundef %18)
  %20 = load i8, ptr %19, align 1
  %21 = sext i8 %20 to i32
  %22 = icmp eq i32 %21, 92
  br i1 %22, label %23, label %109

23:                                               ; preds = %15
  %24 = load i32, ptr %3, align 4
  %25 = zext i32 %24 to i64
  %26 = load ptr, ptr %2, align 8
  %27 = call noundef i64 @_ZNKSt7__cxx1112basic_stringIcSt11char_traitsIcESaIcEE4sizeEv(ptr noundef nonnull align 8 dereferenceable(32) %26) #12
  %28 = sub i64 %27, 1
  %29 = icmp ne i64 %25, %28
  br i1 %29, label %30, label %109

30:                                               ; preds = %23
  %31 = load ptr, ptr %2, align 8
  %32 = load i32, ptr %3, align 4
  %33 = add i32 %32, 1
  %34 = zext i32 %33 to i64
  %35 = call noundef nonnull align 1 dereferenceable(1) ptr @_ZNSt7__cxx1112basic_stringIcSt11char_traitsIcESaIcEEixEm(ptr noundef nonnull align 8 dereferenceable(32) %31, i64 noundef %34)
  %36 = load i8, ptr %35, align 1
  %37 = sext i8 %36 to i32
  switch i32 %37, label %38 [
    i32 97, label %39
    i32 98, label %44
    i32 101, label %49
    i32 102, label %54
    i32 110, label %59
    i32 114, label %64
    i32 116, label %69
    i32 118, label %74
    i32 34, label %79
    i32 39, label %84
    i32 92, label %89
  ]

38:                                               ; preds = %30
  br label %110

39:                                               ; preds = %30
  %40 = load ptr, ptr %2, align 8
  %41 = load i32, ptr %3, align 4
  %42 = zext i32 %41 to i64
  %43 = call noundef nonnull align 1 dereferenceable(1) ptr @_ZNSt7__cxx1112basic_stringIcSt11char_traitsIcESaIcEEixEm(ptr noundef nonnull align 8 dereferenceable(32) %40, i64 noundef %42)
  store i8 7, ptr %43, align 1
  br label %94

44:                                               ; preds = %30
  %45 = load ptr, ptr %2, align 8
  %46 = load i32, ptr %3, align 4
  %47 = zext i32 %46 to i64
  %48 = call noundef nonnull align 1 dereferenceable(1) ptr @_ZNSt7__cxx1112basic_stringIcSt11char_traitsIcESaIcEEixEm(ptr noundef nonnull align 8 dereferenceable(32) %45, i64 noundef %47)
  store i8 8, ptr %48, align 1
  br label %94

49:                                               ; preds = %30
  %50 = load ptr, ptr %2, align 8
  %51 = load i32, ptr %3, align 4
  %52 = zext i32 %51 to i64
  %53 = call noundef nonnull align 1 dereferenceable(1) ptr @_ZNSt7__cxx1112basic_stringIcSt11char_traitsIcESaIcEEixEm(ptr noundef nonnull align 8 dereferenceable(32) %50, i64 noundef %52)
  store i8 27, ptr %53, align 1
  br label %94

54:                                               ; preds = %30
  %55 = load ptr, ptr %2, align 8
  %56 = load i32, ptr %3, align 4
  %57 = zext i32 %56 to i64
  %58 = call noundef nonnull align 1 dereferenceable(1) ptr @_ZNSt7__cxx1112basic_stringIcSt11char_traitsIcESaIcEEixEm(ptr noundef nonnull align 8 dereferenceable(32) %55, i64 noundef %57)
  store i8 12, ptr %58, align 1
  br label %94

59:                                               ; preds = %30
  %60 = load ptr, ptr %2, align 8
  %61 = load i32, ptr %3, align 4
  %62 = zext i32 %61 to i64
  %63 = call noundef nonnull align 1 dereferenceable(1) ptr @_ZNSt7__cxx1112basic_stringIcSt11char_traitsIcESaIcEEixEm(ptr noundef nonnull align 8 dereferenceable(32) %60, i64 noundef %62)
  store i8 10, ptr %63, align 1
  br label %94

64:                                               ; preds = %30
  %65 = load ptr, ptr %2, align 8
  %66 = load i32, ptr %3, align 4
  %67 = zext i32 %66 to i64
  %68 = call noundef nonnull align 1 dereferenceable(1) ptr @_ZNSt7__cxx1112basic_stringIcSt11char_traitsIcESaIcEEixEm(ptr noundef nonnull align 8 dereferenceable(32) %65, i64 noundef %67)
  store i8 13, ptr %68, align 1
  br label %94

69:                                               ; preds = %30
  %70 = load ptr, ptr %2, align 8
  %71 = load i32, ptr %3, align 4
  %72 = zext i32 %71 to i64
  %73 = call noundef nonnull align 1 dereferenceable(1) ptr @_ZNSt7__cxx1112basic_stringIcSt11char_traitsIcESaIcEEixEm(ptr noundef nonnull align 8 dereferenceable(32) %70, i64 noundef %72)
  store i8 9, ptr %73, align 1
  br label %94

74:                                               ; preds = %30
  %75 = load ptr, ptr %2, align 8
  %76 = load i32, ptr %3, align 4
  %77 = zext i32 %76 to i64
  %78 = call noundef nonnull align 1 dereferenceable(1) ptr @_ZNSt7__cxx1112basic_stringIcSt11char_traitsIcESaIcEEixEm(ptr noundef nonnull align 8 dereferenceable(32) %75, i64 noundef %77)
  store i8 11, ptr %78, align 1
  br label %94

79:                                               ; preds = %30
  %80 = load ptr, ptr %2, align 8
  %81 = load i32, ptr %3, align 4
  %82 = zext i32 %81 to i64
  %83 = call noundef nonnull align 1 dereferenceable(1) ptr @_ZNSt7__cxx1112basic_stringIcSt11char_traitsIcESaIcEEixEm(ptr noundef nonnull align 8 dereferenceable(32) %80, i64 noundef %82)
  store i8 34, ptr %83, align 1
  br label %94

84:                                               ; preds = %30
  %85 = load ptr, ptr %2, align 8
  %86 = load i32, ptr %3, align 4
  %87 = zext i32 %86 to i64
  %88 = call noundef nonnull align 1 dereferenceable(1) ptr @_ZNSt7__cxx1112basic_stringIcSt11char_traitsIcESaIcEEixEm(ptr noundef nonnull align 8 dereferenceable(32) %85, i64 noundef %87)
  store i8 39, ptr %88, align 1
  br label %94

89:                                               ; preds = %30
  %90 = load ptr, ptr %2, align 8
  %91 = load i32, ptr %3, align 4
  %92 = zext i32 %91 to i64
  %93 = call noundef nonnull align 1 dereferenceable(1) ptr @_ZNSt7__cxx1112basic_stringIcSt11char_traitsIcESaIcEEixEm(ptr noundef nonnull align 8 dereferenceable(32) %90, i64 noundef %92)
  store i8 92, ptr %93, align 1
  br label %94

94:                                               ; preds = %89, %84, %79, %74, %69, %64, %59, %54, %49, %44, %39
  %95 = load ptr, ptr %2, align 8
  %96 = load ptr, ptr %2, align 8
  %97 = call ptr @_ZNSt7__cxx1112basic_stringIcSt11char_traitsIcESaIcEE5beginEv(ptr noundef nonnull align 8 dereferenceable(32) %96) #12
  %98 = getelementptr inbounds nuw %"class.__gnu_cxx::__normal_iterator.142", ptr %7, i32 0, i32 0
  store ptr %97, ptr %98, align 8
  %99 = load i32, ptr %3, align 4
  %100 = zext i32 %99 to i64
  %101 = call ptr @_ZNK9__gnu_cxx17__normal_iteratorIPcNSt7__cxx1112basic_stringIcSt11char_traitsIcESaIcEEEEplEl(ptr noundef nonnull align 8 dereferenceable(8) %7, i64 noundef %100) #12
  %102 = getelementptr inbounds nuw %"class.__gnu_cxx::__normal_iterator.142", ptr %6, i32 0, i32 0
  store ptr %101, ptr %102, align 8
  %103 = call ptr @_ZNK9__gnu_cxx17__normal_iteratorIPcNSt7__cxx1112basic_stringIcSt11char_traitsIcESaIcEEEEplEl(ptr noundef nonnull align 8 dereferenceable(8) %6, i64 noundef 1) #12
  %104 = getelementptr inbounds nuw %"class.__gnu_cxx::__normal_iterator.142", ptr %5, i32 0, i32 0
  store ptr %103, ptr %104, align 8
  call void @_ZN9__gnu_cxx17__normal_iteratorIPKcNSt7__cxx1112basic_stringIcSt11char_traitsIcESaIcEEEEC2IPcvEERKNS0_IT_S8_EE(ptr noundef nonnull align 8 dereferenceable(8) %4, ptr noundef nonnull align 8 dereferenceable(8) %5) #12
  %105 = getelementptr inbounds nuw %"class.__gnu_cxx::__normal_iterator.143", ptr %4, i32 0, i32 0
  %106 = load ptr, ptr %105, align 8
  %107 = call ptr @_ZNSt7__cxx1112basic_stringIcSt11char_traitsIcESaIcEE5eraseEN9__gnu_cxx17__normal_iteratorIPKcS4_EE(ptr noundef nonnull align 8 dereferenceable(32) %95, ptr %106)
  %108 = getelementptr inbounds nuw %"class.__gnu_cxx::__normal_iterator.142", ptr %8, i32 0, i32 0
  store ptr %107, ptr %108, align 8
  br label %109

109:                                              ; preds = %94, %23, %15
  br label %110

110:                                              ; preds = %109, %38
  %111 = load i32, ptr %3, align 4
  %112 = add i32 %111, 1
  store i32 %112, ptr %3, align 4
  br label %9, !llvm.loop !21

113:                                              ; preds = %9
  ret void
}